; Function Attrs: nounwind uwtable
define noundef ptr @If_DsdManFilter(ptr noundef readonly captures(none) %0, i32 noundef %1) local_unnamed_addr #4 {
Vec_IntAlloc.exit.i:
  %2 = getelementptr inbounds nuw i8, ptr %0, i64 8
  %3 = load i32, ptr %2, align 8, !tbaa !19
  %4 = getelementptr inbounds nuw i8, ptr %0, i64 12
  %5 = load i32, ptr %4, align 4, !tbaa !21
  %6 = tail call ptr @If_DsdManAlloc(i32 noundef %3, i32 noundef %5)
  %7 = getelementptr i8, ptr %0, i64 44
  %.val17 = load i32, ptr %7, align 4, !tbaa !20
  %8 = tail call noalias dereferenceable_or_null(16) ptr @malloc(i64 noundef 16) #41
  %9 = add i32 %.val17, -1
  %or.cond.i.i = icmp ult i32 %9, 15
  %spec.store.select.i.i = select i1 %or.cond.i.i, i32 16, i32 %.val17
  %10 = getelementptr inbounds nuw i8, ptr %8, i64 4
  store i32 %spec.store.select.i.i, ptr %8, align 8, !tbaa !38
  %.not.i.i = icmp ne i32 %spec.store.select.i.i, 0
  tail call void @llvm.assume(i1 %.not.i.i)
  %11 = sext i32 %spec.store.select.i.i to i64
  %12 = shl nsw i64 %11, 2
  %13 = tail call noalias ptr @malloc(i64 noundef %12) #41
  %14 = getelementptr inbounds nuw i8, ptr %8, i64 8
  store ptr %13, ptr %14, align 8, !tbaa !39
  store i32 %.val17, ptr %10, align 4, !tbaa !37
  %.not.i = icmp ne ptr %13, null
  tail call void @llvm.assume(i1 %.not.i)
  %15 = sext i32 %.val17 to i64
  %16 = shl nsw i64 %15, 2
  tail call void @llvm.memset.p0.i64(ptr nonnull align 4 %13, i8 -1, i64 %16, i1 false)
  store i32 0, ptr %13, align 4, !tbaa !40
  %17 = getelementptr inbounds nuw i8, ptr %13, i64 4
  store i32 1, ptr %17, align 4, !tbaa !40
  %18 = icmp sgt i32 %.val17, 2
  br i1 %18, label %.lr.ph, label %Vec_IntFree.exit

.lr.ph:                                           ; preds = %Vec_IntAlloc.exit.i
  %19 = getelementptr i8, ptr %0, i64 48
  br label %20

20:                                               ; preds = %.lr.ph, %29
  %.val26 = phi i32 [ %.val17, %.lr.ph ], [ %.val, %29 ]
  %indvars.iv = phi i64 [ 2, %.lr.ph ], [ %indvars.iv.next, %29 ]
  %.val18 = load ptr, ptr %19, align 8, !tbaa !23
  %21 = getelementptr inbounds nuw ptr, ptr %.val18, i64 %indvars.iv
  %22 = load ptr, ptr %21, align 8, !tbaa !24
  %23 = getelementptr inbounds nuw i8, ptr %22, i64 4
  %24 = load i32, ptr %23, align 4
  %25 = lshr i32 %24, 9
  %26 = and i32 %25, 262143
  %.not = icmp slt i32 %26, %1
  br i1 %.not, label %29, label %27

27:                                               ; preds = %20
  %28 = trunc nuw nsw i64 %indvars.iv to i32
  tail call void @If_DsdManFilter_rec(ptr noundef %6, ptr noundef nonnull %0, i32 noundef %28, ptr noundef nonnull %8)
  %.val.pre = load i32, ptr %7, align 4, !tbaa !20
  br label %29

29:                                               ; preds = %20, %27
  %.val = phi i32 [ %.val26, %20 ], [ %.val.pre, %27 ]
  %indvars.iv.next = add nuw nsw i64 %indvars.iv, 1
  %30 = sext i32 %.val to i64
  %31 = icmp slt i64 %indvars.iv.next, %30
  br i1 %31, label %20, label %Vec_IntFree.exit, !llvm.loop !192

Vec_IntFree.exit:                                 ; preds = %29, %Vec_IntAlloc.exit.i
  tail call void @free(ptr noundef nonnull %13) #39
  tail call void @free(ptr noundef nonnull %8) #39
  ret ptr %6
}